; Function Attrs: nounwind uwtable
define void @Part_ManRecycle(ptr noundef readonly captures(none) %0, ptr noundef %1, i32 noundef %2) local_unnamed_addr #4 {
  %4 = getelementptr inbounds nuw i8, ptr %0, i64 4
  %5 = load i32, ptr %4, align 4, !tbaa !11
  %6 = sdiv i32 %2, %5
  %7 = srem i32 %2, %5
  %8 = icmp sgt i32 %7, 0
  %9 = zext i1 %8 to i32
  %10 = add nsw i32 %6, %9
  %11 = getelementptr inbounds nuw i8, ptr %0, i64 32
  %12 = load ptr, ptr %11, align 8, !tbaa !17
  %13 = add nsw i32 %10, 1
  %14 = getelementptr inbounds nuw i8, ptr %12, i64 4
  %15 = load i32, ptr %14, align 4, !tbaa !12
  %.not.i.not = icmp slt i32 %10, %15
  br i1 %.not.i.not, label %Vec_PtrFillExtra.exit, label %16

16:                                               ; preds = %3
  %17 = load i32, ptr %12, align 8, !tbaa !14
  %18 = shl nsw i32 %17, 1
  %.not = icmp slt i32 %10, %18
  %.not.i.i.not = icmp sgt i32 %17, %10
  br i1 %.not, label %31, label %19

19:                                               ; preds = %16
  br i1 %.not.i.i.not, label %Vec_PtrGrow.exit.i, label %20

20:                                               ; preds = %19
  %21 = getelementptr inbounds nuw i8, ptr %12, i64 8
  %22 = load ptr, ptr %21, align 8, !tbaa !15
  %.not9.i.i = icmp eq ptr %22, null
  %23 = sext i32 %13 to i64
  %24 = shl nsw i64 %23, 3
  br i1 %.not9.i.i, label %27, label %25

25:                                               ; preds = %20
  %26 = tail call ptr @realloc(ptr noundef nonnull %22, i64 noundef %24) #25
  br label %29

27:                                               ; preds = %20
  %28 = tail call noalias ptr @malloc(i64 noundef %24) #23
  br label %29

29:                                               ; preds = %27, %25
  %30 = phi ptr [ %26, %25 ], [ %28, %27 ]
  store ptr %30, ptr %21, align 8, !tbaa !15
  br label %Vec_PtrGrow.exit.sink.split.i

31:                                               ; preds = %16
  br i1 %.not.i.i.not, label %Vec_PtrGrow.exit.i, label %32

32:                                               ; preds = %31
  %33 = getelementptr inbounds nuw i8, ptr %12, i64 8
  %34 = load ptr, ptr %33, align 8, !tbaa !15
  %.not9.i21.i = icmp eq ptr %34, null
  %35 = sext i32 %18 to i64
  %36 = shl nsw i64 %35, 3
  br i1 %.not9.i21.i, label %39, label %37

37:                                               ; preds = %32
  %38 = tail call ptr @realloc(ptr noundef nonnull %34, i64 noundef %36) #25
  br label %41

39:                                               ; preds = %32
  %40 = tail call noalias ptr @malloc(i64 noundef %36) #23
  br label %41

41:                                               ; preds = %39, %37
  %42 = phi ptr [ %38, %37 ], [ %40, %39 ]
  store ptr %42, ptr %33, align 8, !tbaa !15
  br label %Vec_PtrGrow.exit.sink.split.i

Vec_PtrGrow.exit.sink.split.i:                    ; preds = %41, %29
  %.sink.i = phi i32 [ %18, %41 ], [ %13, %29 ]
  store i32 %.sink.i, ptr %12, align 8, !tbaa !14
  %.pre = load i32, ptr %14, align 4, !tbaa !12
  br label %Vec_PtrGrow.exit.i

Vec_PtrGrow.exit.i:                               ; preds = %Vec_PtrGrow.exit.sink.split.i, %31, %19
  %43 = phi i32 [ %.pre, %Vec_PtrGrow.exit.sink.split.i ], [ %15, %31 ], [ %15, %19 ]
  %.not10 = icmp sgt i32 %43, %10
  br i1 %.not10, label %._crit_edge.i, label %.lr.ph.i

.lr.ph.i:                                         ; preds = %Vec_PtrGrow.exit.i
  %44 = getelementptr inbounds nuw i8, ptr %12, i64 8
  %45 = sext i32 %43 to i64
  %wide.trip.count.i = sext i32 %13 to i64
  br label %46

46:                                               ; preds = %46, %.lr.ph.i
  %indvars.iv.i = phi i64 [ %45, %.lr.ph.i ], [ %indvars.iv.next.i, %46 ]
  %47 = load ptr, ptr %44, align 8, !tbaa !15
  %48 = getelementptr inbounds ptr, ptr %47, i64 %indvars.iv.i
  store ptr null, ptr %48, align 8, !tbaa !18
  %indvars.iv.next.i = add nsw i64 %indvars.iv.i, 1
  %exitcond.not.i = icmp eq i64 %indvars.iv.next.i, %wide.trip.count.i
  br i1 %exitcond.not.i, label %._crit_edge.i, label %46, !llvm.loop !21

._crit_edge.i:                                    ; preds = %46, %Vec_PtrGrow.exit.i
  store i32 %13, ptr %14, align 4, !tbaa !12
  %.pre11 = load ptr, ptr %11, align 8, !tbaa !17
  br label %Vec_PtrFillExtra.exit

Vec_PtrFillExtra.exit:                            ; preds = %3, %._crit_edge.i
  %49 = phi ptr [ %12, %3 ], [ %.pre11, %._crit_edge.i ]
  %50 = getelementptr i8, ptr %49, i64 8
  %.val = load ptr, ptr %50, align 8, !tbaa !15
  %51 = sext i32 %10 to i64
  %52 = getelementptr inbounds ptr, ptr %.val, i64 %51
  %53 = load ptr, ptr %52, align 8, !tbaa !18
  store ptr %53, ptr %1, align 8, !tbaa !22
  store ptr %1, ptr %52, align 8, !tbaa !18
  ret void
}